; ModuleID = '7/493.c'
source_filename = "7/493.c"
target datalayout = "e-m:e-p270:32:32-p271:32:32-p272:64:64-i64:64-f80:128-n8:16:32:64-S128"
target triple = "x86_64-pc-linux-gnu"

@.str = private unnamed_addr constant [3 x i8] c"%c\00", align 1
@.str.1 = private unnamed_addr constant [3 x i8] c"%s\00", align 1

; Function Attrs: noinline nounwind uwtable
define dso_local i32 @main() #0 {
  %1 = alloca i32, align 4
  %2 = alloca [256 x i8], align 16
  %3 = alloca [256 x i8], align 16
  %4 = alloca [256 x i8], align 16
  %5 = alloca [256 x [256 x i8]], align 16
  %6 = alloca i32, align 4
  %7 = alloca i32, align 4
  %8 = alloca i32, align 4
  %9 = alloca i32, align 4
  %10 = alloca i32, align 4
  store i32 0, i32* %1, align 4
  %11 = getelementptr inbounds [256 x i8], [256 x i8]* %2, i64 0, i64 0
  %12 = call i32 (i8*, ...) bitcast (i32 (...)* @gets to i32 (i8*, ...)*)(i8* %11)
  %13 = getelementptr inbounds [256 x i8], [256 x i8]* %3, i64 0, i64 0
  %14 = call i32 (i8*, ...) bitcast (i32 (...)* @gets to i32 (i8*, ...)*)(i8* %13)
  %15 = getelementptr inbounds [256 x i8], [256 x i8]* %4, i64 0, i64 0
  %16 = call i32 (i8*, ...) bitcast (i32 (...)* @gets to i32 (i8*, ...)*)(i8* %15)
  %17 = getelementptr inbounds [256 x i8], [256 x i8]* %2, i64 0, i64 0
  %18 = call i64 @strlen(i8* %17) #4
  %19 = trunc i64 %18 to i32
  store i32 %19, i32* %6, align 4
  %20 = getelementptr inbounds [256 x i8], [256 x i8]* %3, i64 0, i64 0
  %21 = call i64 @strlen(i8* %20) #4
  %22 = trunc i64 %21 to i32
  store i32 %22, i32* %7, align 4
  %23 = getelementptr inbounds [256 x i8], [256 x i8]* %4, i64 0, i64 0
  %24 = call i64 @strlen(i8* %23) #4
  %25 = trunc i64 %24 to i32
  store i32 %25, i32* %8, align 4
  store i32 0, i32* %9, align 4
  br label %26

26:                                               ; preds = %60, %0
  %27 = load i32, i32* %9, align 4
  %28 = load i32, i32* %6, align 4
  %29 = load i32, i32* %7, align 4
  %30 = sub nsw i32 %28, %29
  %31 = icmp sle i32 %27, %30
  br i1 %31, label %32, label %63

32:                                               ; preds = %26
  store i32 0, i32* %10, align 4
  br label %33

33:                                               ; preds = %50, %32
  %34 = load i32, i32* %10, align 4
  %35 = load i32, i32* %7, align 4
  %36 = icmp slt i32 %34, %35
  br i1 %36, label %37, label %53

37:                                               ; preds = %33
  %38 = load i32, i32* %9, align 4
  %39 = load i32, i32* %10, align 4
  %40 = add nsw i32 %38, %39
  %41 = sext i32 %40 to i64
  %42 = getelementptr inbounds [256 x i8], [256 x i8]* %2, i64 0, i64 %41
  %43 = load i8, i8* %42, align 1
  %44 = load i32, i32* %9, align 4
  %45 = sext i32 %44 to i64
  %46 = getelementptr inbounds [256 x [256 x i8]], [256 x [256 x i8]]* %5, i64 0, i64 %45
  %47 = load i32, i32* %10, align 4
  %48 = sext i32 %47 to i64
  %49 = getelementptr inbounds [256 x i8], [256 x i8]* %46, i64 0, i64 %48
  store i8 %43, i8* %49, align 1
  br label %50

50:                                               ; preds = %37
  %51 = load i32, i32* %10, align 4
  %52 = add nsw i32 %51, 1
  store i32 %52, i32* %10, align 4
  br label %33

53:                                               ; preds = %33
  %54 = load i32, i32* %9, align 4
  %55 = sext i32 %54 to i64
  %56 = getelementptr inbounds [256 x [256 x i8]], [256 x [256 x i8]]* %5, i64 0, i64 %55
  %57 = load i32, i32* %7, align 4
  %58 = sext i32 %57 to i64
  %59 = getelementptr inbounds [256 x i8], [256 x i8]* %56, i64 0, i64 %58
  store i8 0, i8* %59, align 1
  br label %60

60:                                               ; preds = %53
  %61 = load i32, i32* %9, align 4
  %62 = add nsw i32 %61, 1
  store i32 %62, i32* %9, align 4
  br label %26

63:                                               ; preds = %26
  store i32 0, i32* %9, align 4
  br label %64

64:                                               ; preds = %86, %63
  %65 = load i32, i32* %9, align 4
  %66 = load i32, i32* %6, align 4
  %67 = load i32, i32* %7, align 4
  %68 = sub nsw i32 %66, %67
  %69 = icmp sle i32 %65, %68
  br i1 %69, label %70, label %89

70:                                               ; preds = %64
  %71 = load i32, i32* %9, align 4
  %72 = sext i32 %71 to i64
  %73 = getelementptr inbounds [256 x [256 x i8]], [256 x [256 x i8]]* %5, i64 0, i64 %72
  %74 = getelementptr inbounds [256 x i8], [256 x i8]* %73, i64 0, i64 0
  %75 = getelementptr inbounds [256 x i8], [256 x i8]* %3, i64 0, i64 0
  %76 = call i32 @strcmp(i8* %74, i8* %75) #4
  %77 = icmp eq i32 %76, 0
  br i1 %77, label %78, label %85

78:                                               ; preds = %70
  %79 = load i32, i32* %9, align 4
  %80 = sext i32 %79 to i64
  %81 = getelementptr inbounds [256 x [256 x i8]], [256 x [256 x i8]]* %5, i64 0, i64 %80
  %82 = getelementptr inbounds [256 x i8], [256 x i8]* %81, i64 0, i64 0
  %83 = getelementptr inbounds [256 x i8], [256 x i8]* %4, i64 0, i64 0
  %84 = call i8* @strcpy(i8* %82, i8* %83) #5
  br label %89

85:                                               ; preds = %70
  br label %86

86:                                               ; preds = %85
  %87 = load i32, i32* %9, align 4
  %88 = add nsw i32 %87, 1
  store i32 %88, i32* %9, align 4
  br label %64

89:                                               ; preds = %78, %64
  %90 = load i32, i32* %9, align 4
  %91 = load i32, i32* %6, align 4
  %92 = load i32, i32* %7, align 4
  %93 = sub nsw i32 %91, %92
  %94 = add nsw i32 %93, 1
  %95 = icmp ne i32 %90, %94
  br i1 %95, label %96, label %153

96:                                               ; preds = %89
  store i32 0, i32* %10, align 4
  br label %97

97:                                               ; preds = %109, %96
  %98 = load i32, i32* %10, align 4
  %99 = load i32, i32* %9, align 4
  %100 = icmp slt i32 %98, %99
  br i1 %100, label %101, label %112

101:                                              ; preds = %97
  %102 = load i32, i32* %10, align 4
  %103 = sext i32 %102 to i64
  %104 = getelementptr inbounds [256 x [256 x i8]], [256 x [256 x i8]]* %5, i64 0, i64 %103
  %105 = getelementptr inbounds [256 x i8], [256 x i8]* %104, i64 0, i64 0
  %106 = load i8, i8* %105, align 16
  %107 = sext i8 %106 to i32
  %108 = call i32 (i8*, ...) @printf(i8* getelementptr inbounds ([3 x i8], [3 x i8]* @.str, i64 0, i64 0), i32 %107)
  br label %109

109:                                              ; preds = %101
  %110 = load i32, i32* %10, align 4
  %111 = add nsw i32 %110, 1
  store i32 %111, i32* %10, align 4
  br label %97

112:                                              ; preds = %97
  %113 = load i32, i32* %9, align 4
  %114 = sext i32 %113 to i64
  %115 = getelementptr inbounds [256 x [256 x i8]], [256 x [256 x i8]]* %5, i64 0, i64 %114
  %116 = getelementptr inbounds [256 x i8], [256 x i8]* %115, i64 0, i64 0
  %117 = call i32 (i8*, ...) @printf(i8* getelementptr inbounds ([3 x i8], [3 x i8]* @.str.1, i64 0, i64 0), i8* %116)
  %118 = load i32, i32* %9, align 4
  %119 = load i32, i32* %6, align 4
  %120 = load i32, i32* %7, align 4
  %121 = sub nsw i32 %119, %120
  %122 = icmp ne i32 %118, %121
  br i1 %122, label %123, label %152

123:                                              ; preds = %112
  %124 = load i32, i32* %9, align 4
  %125 = load i32, i32* %7, align 4
  %126 = add nsw i32 %124, %125
  store i32 %126, i32* %10, align 4
  br label %127

127:                                              ; preds = %141, %123
  %128 = load i32, i32* %10, align 4
  %129 = load i32, i32* %6, align 4
  %130 = load i32, i32* %7, align 4
  %131 = sub nsw i32 %129, %130
  %132 = icmp slt i32 %128, %131
  br i1 %132, label %133, label %144

133:                                              ; preds = %127
  %134 = load i32, i32* %10, align 4
  %135 = sext i32 %134 to i64
  %136 = getelementptr inbounds [256 x [256 x i8]], [256 x [256 x i8]]* %5, i64 0, i64 %135
  %137 = getelementptr inbounds [256 x i8], [256 x i8]* %136, i64 0, i64 0
  %138 = load i8, i8* %137, align 16
  %139 = sext i8 %138 to i32
  %140 = call i32 (i8*, ...) @printf(i8* getelementptr inbounds ([3 x i8], [3 x i8]* @.str, i64 0, i64 0), i32 %139)
  br label %141

141:                                              ; preds = %133
  %142 = load i32, i32* %10, align 4
  %143 = add nsw i32 %142, 1
  store i32 %143, i32* %10, align 4
  br label %127

144:                                              ; preds = %127
  %145 = load i32, i32* %6, align 4
  %146 = load i32, i32* %7, align 4
  %147 = sub nsw i32 %145, %146
  %148 = sext i32 %147 to i64
  %149 = getelementptr inbounds [256 x [256 x i8]], [256 x [256 x i8]]* %5, i64 0, i64 %148
  %150 = getelementptr inbounds [256 x i8], [256 x i8]* %149, i64 0, i64 0
  %151 = call i32 (i8*, ...) @printf(i8* getelementptr inbounds ([3 x i8], [3 x i8]* @.str.1, i64 0, i64 0), i8* %150)
  br label %152

152:                                              ; preds = %144, %112
  br label %179

153:                                              ; preds = %89
  store i32 0, i32* %10, align 4
  br label %154

154:                                              ; preds = %168, %153
  %155 = load i32, i32* %10, align 4
  %156 = load i32, i32* %6, align 4
  %157 = load i32, i32* %7, align 4
  %158 = sub nsw i32 %156, %157
  %159 = icmp slt i32 %155, %158
  br i1 %159, label %160, label %171

160:                                              ; preds = %154
  %161 = load i32, i32* %10, align 4
  %162 = sext i32 %161 to i64
  %163 = getelementptr inbounds [256 x [256 x i8]], [256 x [256 x i8]]* %5, i64 0, i64 %162
  %164 = getelementptr inbounds [256 x i8], [256 x i8]* %163, i64 0, i64 0
  %165 = load i8, i8* %164, align 16
  %166 = sext i8 %165 to i32
  %167 = call i32 (i8*, ...) @printf(i8* getelementptr inbounds ([3 x i8], [3 x i8]* @.str, i64 0, i64 0), i32 %166)
  br label %168

168:                                              ; preds = %160
  %169 = load i32, i32* %10, align 4
  %170 = add nsw i32 %169, 1
  store i32 %170, i32* %10, align 4
  br label %154

171:                                              ; preds = %154
  %172 = load i32, i32* %6, align 4
  %173 = load i32, i32* %7, align 4
  %174 = sub nsw i32 %172, %173
  %175 = sext i32 %174 to i64
  %176 = getelementptr inbounds [256 x [256 x i8]], [256 x [256 x i8]]* %5, i64 0, i64 %175
  %177 = getelementptr inbounds [256 x i8], [256 x i8]* %176, i64 0, i64 0
  %178 = call i32 (i8*, ...) @printf(i8* getelementptr inbounds ([3 x i8], [3 x i8]* @.str.1, i64 0, i64 0), i8* %177)
  br label %179

179:                                              ; preds = %171, %152
  ret i32 0
}

declare dso_local i32 @gets(...) #1

; Function Attrs: nounwind readonly
declare dso_local i64 @strlen(i8*) #2

; Function Attrs: nounwind readonly
declare dso_local i32 @strcmp(i8*, i8*) #2

; Function Attrs: nounwind
declare dso_local i8* @strcpy(i8*, i8*) #3

declare dso_local i32 @printf(i8*, ...) #1


!llvm.module.flags = !{!0}
!llvm.ident = !{!1}

!0 = !{i32 1, !"wchar_size", i32 4}
!1 = !{!"clang version 10.0.0-4ubuntu1 "}
